target datalayout = "e-m:e-p270:32:32-p271:32:32-p272:64:64-i64:64-i128:128-f80:128-n8:16:32:64-S128"
target triple = "x86_64-pc-linux-gnu"

%"class.llvm::SmallVectorBase" = type { ptr, i32, i32 }
%"class.llvm::Twine" = type <{ %"union.llvm::Twine::Child", %"union.llvm::Twine::Child", i8, i8, [6 x i8] }>
%"union.llvm::Twine::Child" = type { %struct.anon }
%struct.anon = type { ptr, i64 }
%"class.llvm::Value" = type { i8, i8, i16, i32, ptr, ptr }
%"class.llvm::IRBuilderBase" = type { %"class.llvm::SmallVector.7", ptr, %"class.llvm::ilist_iterator_w_bits", ptr, ptr, ptr, ptr, %"class.llvm::FastMathFlags", i8, i8, i8, %"class.llvm::ArrayRef" }
%"class.llvm::SmallVector.7" = type { %"class.llvm::SmallVectorImpl.8", %"struct.llvm::SmallVectorStorage.11" }
%"class.llvm::SmallVectorImpl.8" = type { %"class.llvm::SmallVectorTemplateBase.9" }
%"class.llvm::SmallVectorTemplateBase.9" = type { %"class.llvm::SmallVectorTemplateCommon.10" }
%"class.llvm::SmallVectorTemplateCommon.10" = type { %"class.llvm::SmallVectorBase" }
%"struct.llvm::SmallVectorStorage.11" = type { [32 x i8] }
%"class.llvm::ilist_iterator_w_bits" = type <{ ptr, i8, i8, [6 x i8] }>
%"class.llvm::FastMathFlags" = type { i32 }
%"class.llvm::ArrayRef" = type { ptr, i64 }
%"class.llvm::Type" = type { ptr, i32, i32, ptr }
%"class.llvm::ArrayRef.231" = type { ptr, i64 }
%"class.llvm::VectorType" = type <{ %"class.llvm::Type", ptr, i32, [4 x i8] }>

@.str.41 = private unnamed_addr constant [1 x i8] zeroinitializer, align 1
@.str.53 = private unnamed_addr constant [5 x i8] c"cast\00", align 1

; Function Attrs: mustprogress nounwind uwtable
define linkonce_odr hidden noundef ptr @_ZN4llvm16cast_convert_valINS_15FixedVectorTypeEPNS_4TypeES3_E4doitEPKS2_(ptr noundef %0) #1 comdat align 2 {
  %2 = alloca ptr, align 8
  store ptr %0, ptr %2, align 8
  %3 = load ptr, ptr %2, align 8
  ret ptr %3
}

; Function Attrs: mustprogress nounwind uwtable
define linkonce_odr hidden noundef ptr @_ZN4llvm8CastInfoINS_15FixedVectorTypeEPNS_4TypeEvE6doCastERKS3_(ptr noundef nonnull align 8 dereferenceable(8) %0) #1 comdat align 2 {
  %2 = alloca ptr, align 8
  store ptr %0, ptr %2, align 8
  %3 = load ptr, ptr %2, align 8
  %4 = load ptr, ptr %3, align 8
  %5 = call noundef ptr @_ZN4llvm16cast_convert_valINS_15FixedVectorTypeEPNS_4TypeES3_E4doitEPKS2_(ptr noundef %4)
  ret ptr %5
}

; Function Attrs: mustprogress nounwind uwtable
define linkonce_odr hidden void @_ZN4llvm8ArrayRefIiEC2EPKim(ptr noundef nonnull align 8 dereferenceable(16) %0, ptr noundef %1, i64 noundef %2) unnamed_addr #1 comdat align 2 {
  %4 = alloca ptr, align 8
  %5 = alloca ptr, align 8
  %6 = alloca i64, align 8
  store ptr %0, ptr %4, align 8
  store ptr %1, ptr %5, align 8
  store i64 %2, ptr %6, align 8
  %7 = load ptr, ptr %4, align 8
  %8 = getelementptr inbounds nuw %"class.llvm::ArrayRef.231", ptr %7, i32 0, i32 0
  %9 = load ptr, ptr %5, align 8
  store ptr %9, ptr %8, align 8
  %10 = getelementptr inbounds nuw %"class.llvm::ArrayRef.231", ptr %7, i32 0, i32 1
  %11 = load i64, ptr %6, align 8
  store i64 %11, ptr %10, align 8
  ret void
}

; Function Attrs: mustprogress nounwind uwtable
define linkonce_odr hidden noundef ptr @_ZN4llvm13IRBuilderBase13CreateBitCastEPNS_5ValueEPNS_4TypeERKNS_5TwineE(ptr noundef nonnull align 8 dereferenceable(128) %0, ptr noundef %1, ptr noundef %2, ptr noundef nonnull align 8 dereferenceable(34) %3) #1 comdat align 2 {
  %5 = alloca ptr, align 8
  %6 = alloca ptr, align 8
  %7 = alloca ptr, align 8
  %8 = alloca ptr, align 8
  store ptr %0, ptr %5, align 8
  store ptr %1, ptr %6, align 8
  store ptr %2, ptr %7, align 8
  store ptr %3, ptr %8, align 8
  %9 = load ptr, ptr %5, align 8
  %10 = load ptr, ptr %6, align 8
  %11 = load ptr, ptr %7, align 8
  %12 = load ptr, ptr %8, align 8
  %13 = call noundef ptr @_ZN4llvm13IRBuilderBase10CreateCastENS_11Instruction7CastOpsEPNS_5ValueEPNS_4TypeERKNS_5TwineE(ptr noundef nonnull align 8 dereferenceable(128) %9, i32 noundef 49, ptr noundef %10, ptr noundef %11, ptr noundef nonnull align 8 dereferenceable(34) %12)
  ret ptr %13
}

; Function Attrs: mustprogress nounwind uwtable
define linkonce_odr hidden void @_ZN4llvm5TwineC2EPKc(ptr noundef nonnull align 8 dereferenceable(34) %0, ptr noundef %1) unnamed_addr #1 comdat align 2 {
  %3 = alloca ptr, align 8
  %4 = alloca ptr, align 8
  store ptr %0, ptr %3, align 8
  store ptr %1, ptr %4, align 8
  %5 = load ptr, ptr %3, align 8
  %6 = getelementptr inbounds nuw %"class.llvm::Twine", ptr %5, i32 0, i32 2
  store i8 1, ptr %6, align 8
  %7 = getelementptr inbounds nuw %"class.llvm::Twine", ptr %5, i32 0, i32 3
  store i8 1, ptr %7, align 1
  %8 = load ptr, ptr %4, align 8
  %9 = getelementptr inbounds i8, ptr %8, i64 0
  %10 = load i8, ptr %9, align 1
  %11 = sext i8 %10 to i32
  %12 = icmp ne i32 %11, 0
  br i1 %12, label %13, label %17

13:                                               ; preds = %2
  %14 = load ptr, ptr %4, align 8
  %15 = getelementptr inbounds nuw %"class.llvm::Twine", ptr %5, i32 0, i32 0
  store ptr %14, ptr %15, align 8
  %16 = getelementptr inbounds nuw %"class.llvm::Twine", ptr %5, i32 0, i32 2
  store i8 3, ptr %16, align 8
  br label %19

17:                                               ; preds = %2
  %18 = getelementptr inbounds nuw %"class.llvm::Twine", ptr %5, i32 0, i32 2
  store i8 1, ptr %18, align 8
  br label %19

19:                                               ; preds = %17, %13
  ret void
}

; Function Attrs: mustprogress nounwind uwtable
define linkonce_odr hidden noundef ptr @_ZN4llvm13IRBuilderBase9getInt8TyEv(ptr noundef nonnull align 8 dereferenceable(128) %0) #1 comdat align 2 {
  %2 = alloca ptr, align 8
  store ptr %0, ptr %2, align 8
  %3 = load ptr, ptr %2, align 8
  %4 = getelementptr inbounds nuw %"class.llvm::IRBuilderBase", ptr %3, i32 0, i32 3
  %5 = load ptr, ptr %4, align 8
  %6 = call noundef ptr @_ZN4llvm4Type9getInt8TyERNS_11LLVMContextE(ptr noundef nonnull align 8 dereferenceable(8) %5)
  ret ptr %6
}

; Function Attrs: mustprogress nounwind uwtable
define linkonce_odr hidden noundef i32 @_ZNK4llvm15FixedVectorType14getNumElementsEv(ptr noundef nonnull align 8 dereferenceable(36) %0) #1 comdat align 2 {
  %2 = alloca ptr, align 8
  store ptr %0, ptr %2, align 8
  %3 = load ptr, ptr %2, align 8
  %4 = getelementptr inbounds nuw %"class.llvm::VectorType", ptr %3, i32 0, i32 2
  %5 = load i32, ptr %4, align 8
  ret i32 %5
}

; Function Attrs: mustprogress nounwind uwtable
define linkonce_odr hidden noundef ptr @_ZN4llvm4castINS_15FixedVectorTypeENS_4TypeEEEDcPT0_(ptr noundef %0) #1 comdat {
  %2 = alloca ptr, align 8
  store ptr %0, ptr %2, align 8
  %3 = call noundef ptr @_ZN4llvm8CastInfoINS_15FixedVectorTypeEPNS_4TypeEvE6doCastERKS3_(ptr noundef nonnull align 8 dereferenceable(8) %2)
  ret ptr %3
}

; Function Attrs: mustprogress nounwind uwtable
define linkonce_odr hidden noundef ptr @_ZNK4llvm5Value7getTypeEv(ptr noundef nonnull align 8 dereferenceable(24) %0) #1 comdat align 2 {
  %2 = alloca ptr, align 8
  store ptr %0, ptr %2, align 8
  %3 = load ptr, ptr %2, align 8
  %4 = getelementptr inbounds nuw %"class.llvm::Value", ptr %3, i32 0, i32 4
  %5 = load ptr, ptr %4, align 8
  ret ptr %5
}

; Function Attrs: mustprogress nounwind uwtable
define internal noundef ptr @_ZL26upgradeX86PSRLDQIntrinsicsRN4llvm9IRBuilderINS_14ConstantFolderENS_24IRBuilderDefaultInserterEEEPNS_5ValueEj(ptr noundef nonnull align 8 dereferenceable(144) %0, ptr noundef %1, i32 noundef %2) #1 {
  %4 = alloca ptr, align 8
  %5 = alloca ptr, align 8
  %6 = alloca i32, align 4
  %7 = alloca ptr, align 8
  %8 = alloca i32, align 4
  %9 = alloca ptr, align 8
  %10 = alloca %"class.llvm::Twine", align 8
  %11 = alloca ptr, align 8
  %12 = alloca [64 x i32], align 16
  %13 = alloca i32, align 4
  %14 = alloca i32, align 4
  %15 = alloca i32, align 4
  %16 = alloca %"class.llvm::ArrayRef.231", align 8
  %17 = alloca %"class.llvm::Twine", align 8
  %18 = alloca %"class.llvm::Twine", align 8
  store ptr %0, ptr %4, align 8
  store ptr %1, ptr %5, align 8
  store i32 %2, ptr %6, align 4
  %19 = load ptr, ptr %5, align 8
  %20 = call noundef ptr @_ZNK4llvm5Value7getTypeEv(ptr noundef nonnull align 8 dereferenceable(24) %19)
  %21 = call noundef ptr @_ZN4llvm4castINS_15FixedVectorTypeENS_4TypeEEEDcPT0_(ptr noundef %20)
  store ptr %21, ptr %7, align 8
  %22 = load ptr, ptr %7, align 8
  %23 = call noundef i32 @_ZNK4llvm15FixedVectorType14getNumElementsEv(ptr noundef nonnull align 8 dereferenceable(36) %22)
  %24 = mul i32 %23, 8
  store i32 %24, ptr %8, align 4
  %25 = load ptr, ptr %4, align 8
  %26 = call noundef ptr @_ZN4llvm13IRBuilderBase9getInt8TyEv(ptr noundef nonnull align 8 dereferenceable(128) %25)
  %27 = load i32, ptr %8, align 4
  %28 = call noundef ptr @_ZN4llvm15FixedVectorType3getEPNS_4TypeEj(ptr noundef %26, i32 noundef %27)
  store ptr %28, ptr %9, align 8
  %29 = load ptr, ptr %4, align 8
  %30 = load ptr, ptr %5, align 8
  %31 = load ptr, ptr %9, align 8
  call void @_ZN4llvm5TwineC2EPKc(ptr noundef nonnull align 8 dereferenceable(34) %10, ptr noundef @.str.53)
  %32 = call noundef ptr @_ZN4llvm13IRBuilderBase13CreateBitCastEPNS_5ValueEPNS_4TypeERKNS_5TwineE(ptr noundef nonnull align 8 dereferenceable(128) %29, ptr noundef %30, ptr noundef %31, ptr noundef nonnull align 8 dereferenceable(34) %10)
  store ptr %32, ptr %5, align 8
  %33 = load ptr, ptr %9, align 8
  %34 = call noundef ptr @_ZN4llvm8Constant12getNullValueEPNS_4TypeE(ptr noundef %33)
  store ptr %34, ptr %11, align 8
  %35 = load i32, ptr %6, align 4
  %36 = icmp ult i32 %35, 16
  br i1 %36, label %37, label %85

37:                                               ; preds = %3
  store i32 0, ptr %13, align 4
  br label %38

38:                                               ; preds = %70, %37
  %39 = load i32, ptr %13, align 4
  %40 = load i32, ptr %8, align 4
  %41 = icmp ne i32 %39, %40
  br i1 %41, label %42, label %73

42:                                               ; preds = %38
  store i32 0, ptr %14, align 4
  br label %43

43:                                               ; preds = %66, %42
  %44 = load i32, ptr %14, align 4
  %45 = icmp ne i32 %44, 16
  br i1 %45, label %46, label %69

46:                                               ; preds = %43
  %47 = load i32, ptr %14, align 4
  %48 = load i32, ptr %6, align 4
  %49 = add i32 %47, %48
  store i32 %49, ptr %15, align 4
  %50 = load i32, ptr %15, align 4
  %51 = icmp uge i32 %50, 16
  br i1 %51, label %52, label %57

52:                                               ; preds = %46
  %53 = load i32, ptr %8, align 4
  %54 = sub i32 %53, 16
  %55 = load i32, ptr %15, align 4
  %56 = add i32 %55, %54
  store i32 %56, ptr %15, align 4
  br label %57

57:                                               ; preds = %52, %46
  %58 = load i32, ptr %15, align 4
  %59 = load i32, ptr %13, align 4
  %60 = add i32 %58, %59
  %61 = load i32, ptr %13, align 4
  %62 = load i32, ptr %14, align 4
  %63 = add i32 %61, %62
  %64 = zext i32 %63 to i64
  %65 = getelementptr inbounds [64 x i32], ptr %12, i64 0, i64 %64
  store i32 %60, ptr %65, align 4
  br label %66

66:                                               ; preds = %57
  %67 = load i32, ptr %14, align 4
  %68 = add i32 %67, 1
  store i32 %68, ptr %14, align 4
  br label %43, !llvm.loop !55

69:                                               ; preds = %43
  br label %70

70:                                               ; preds = %69
  %71 = load i32, ptr %13, align 4
  %72 = add i32 %71, 16
  store i32 %72, ptr %13, align 4
  br label %38, !llvm.loop !56

73:                                               ; preds = %38
  %74 = load ptr, ptr %4, align 8
  %75 = load ptr, ptr %5, align 8
  %76 = load ptr, ptr %11, align 8
  %77 = getelementptr inbounds [64 x i32], ptr %12, i64 0, i64 0
  %78 = load i32, ptr %8, align 4
  %79 = zext i32 %78 to i64
  call void @_ZN4llvm8ArrayRefIiEC2EPKim(ptr noundef nonnull align 8 dereferenceable(16) %16, ptr noundef %77, i64 noundef %79)
  call void @_ZN4llvm5TwineC2EPKc(ptr noundef nonnull align 8 dereferenceable(34) %17, ptr noundef @.str.41)
  %80 = getelementptr inbounds nuw { ptr, i64 }, ptr %16, i32 0, i32 0
  %81 = load ptr, ptr %80, align 8
  %82 = getelementptr inbounds nuw { ptr, i64 }, ptr %16, i32 0, i32 1
  %83 = load i64, ptr %82, align 8
  %84 = call noundef ptr @_ZN4llvm13IRBuilderBase19CreateShuffleVectorEPNS_5ValueES2_NS_8ArrayRefIiEERKNS_5TwineE(ptr noundef nonnull align 8 dereferenceable(128) %74, ptr noundef %75, ptr noundef %76, ptr %81, i64 %83, ptr noundef nonnull align 8 dereferenceable(34) %17)
  store ptr %84, ptr %11, align 8
  br label %85

85:                                               ; preds = %73, %3
  %86 = load ptr, ptr %4, align 8
  %87 = load ptr, ptr %11, align 8
  %88 = load ptr, ptr %7, align 8
  call void @_ZN4llvm5TwineC2EPKc(ptr noundef nonnull align 8 dereferenceable(34) %18, ptr noundef @.str.53)
  %89 = call noundef ptr @_ZN4llvm13IRBuilderBase13CreateBitCastEPNS_5ValueEPNS_4TypeERKNS_5TwineE(ptr noundef nonnull align 8 dereferenceable(128) %86, ptr noundef %87, ptr noundef %88, ptr noundef nonnull align 8 dereferenceable(34) %18)
  ret ptr %89
}