; Function Attrs: mustprogress nounwind uwtable
define internal fastcc noundef ptr @_ZL26upgradeX86PSRLDQIntrinsicsRN4llvm9IRBuilderINS_14ConstantFolderENS_24IRBuilderDefaultInserterEEEPNS_5ValueEj(ptr noundef nonnull align 8 dereferenceable(144) %0, ptr noundef %1, i32 noundef %2) unnamed_addr #0 {
  %4 = alloca %"class.llvm::Twine", align 8
  %5 = alloca [64 x i32], align 16
  %6 = alloca %"class.llvm::Twine", align 8
  %7 = alloca %"class.llvm::Twine", align 8
  %8 = getelementptr inbounds nuw i8, ptr %1, i64 8
  %9 = load ptr, ptr %8, align 8
  %10 = getelementptr inbounds nuw i8, ptr %9, i64 32
  %11 = load i32, ptr %10, align 8
  %12 = shl i32 %11, 3
  %13 = getelementptr inbounds nuw i8, ptr %0, i64 72
  %14 = load ptr, ptr %13, align 8
  %15 = tail call noundef ptr @_ZN4llvm4Type9getInt8TyERNS_11LLVMContextE(ptr noundef nonnull align 8 dereferenceable(8) %14) #20
  %16 = tail call noundef ptr @_ZN4llvm15FixedVectorType3getEPNS_4TypeEj(ptr noundef %15, i32 noundef %12) #20
  %17 = getelementptr inbounds nuw i8, ptr %4, i64 32
  %18 = getelementptr inbounds nuw i8, ptr %4, i64 33
  store i8 1, ptr %18, align 1
  store ptr @.str.53, ptr %4, align 8
  store i8 3, ptr %17, align 8
  %19 = call noundef ptr @_ZN4llvm13IRBuilderBase10CreateCastENS_11Instruction7CastOpsEPNS_5ValueEPNS_4TypeERKNS_5TwineE(ptr noundef nonnull align 8 dereferenceable(128) %0, i32 noundef 49, ptr noundef %1, ptr noundef %16, ptr noundef nonnull align 8 dereferenceable(34) %4)
  %20 = call noundef ptr @_ZN4llvm8Constant12getNullValueEPNS_4TypeE(ptr noundef %16) #20
  %21 = icmp ult i32 %2, 16
  br i1 %21, label %.preheader37, label %36

.preheader37:                                     ; preds = %3
  %.not39 = icmp eq i32 %12, 0
  br i1 %.not39, label %._crit_edge, label %.preheader.lr.ph

.preheader.lr.ph:                                 ; preds = %.preheader37
  %22 = add i32 %12, -16
  br label %.preheader

.preheader:                                       ; preds = %.preheader.lr.ph, %32
  %indvars.iv42 = phi i64 [ 0, %.preheader.lr.ph ], [ %indvars.iv.next43, %32 ]
  %23 = trunc i64 %indvars.iv42 to i32
  %24 = or disjoint i32 %2, %23
  br label %25

25:                                               ; preds = %.preheader, %25
  %indvars.iv = phi i64 [ 0, %.preheader ], [ %indvars.iv.next, %25 ]
  %indvars41 = trunc i64 %indvars.iv to i32
  %26 = add i32 %2, %indvars41
  %27 = icmp ugt i32 %26, 15
  %28 = select i1 %27, i32 %22, i32 0
  %.0.reass = add i32 %24, %indvars41
  %29 = add i32 %.0.reass, %28
  %30 = add nuw nsw i64 %indvars.iv, %indvars.iv42
  %31 = getelementptr inbounds [64 x i32], ptr %5, i64 0, i64 %30
  store i32 %29, ptr %31, align 4
  %indvars.iv.next = add nuw nsw i64 %indvars.iv, 1
  %.not36 = icmp eq i64 %indvars.iv.next, 16
  br i1 %.not36, label %32, label %25, !llvm.loop !140

32:                                               ; preds = %25
  %indvars.iv.next43 = add nuw nsw i64 %indvars.iv42, 16
  %indvars = trunc i64 %indvars.iv.next43 to i32
  %.not = icmp eq i32 %12, %indvars
  br i1 %.not, label %._crit_edge, label %.preheader, !llvm.loop !141

._crit_edge:                                      ; preds = %32, %.preheader37
  %33 = zext i32 %12 to i64
  %34 = getelementptr inbounds nuw i8, ptr %6, i64 32
  store i16 257, ptr %34, align 8
  %35 = call noundef ptr @_ZN4llvm13IRBuilderBase19CreateShuffleVectorEPNS_5ValueES2_NS_8ArrayRefIiEERKNS_5TwineE(ptr noundef nonnull align 8 dereferenceable(128) %0, ptr noundef %19, ptr noundef %20, ptr nonnull %5, i64 %33, ptr noundef nonnull align 8 dereferenceable(34) %6)
  br label %36

36:                                               ; preds = %._crit_edge, %3
  %.031 = phi ptr [ %35, %._crit_edge ], [ %20, %3 ]
  %37 = getelementptr inbounds nuw i8, ptr %7, i64 32
  %38 = getelementptr inbounds nuw i8, ptr %7, i64 33
  store i8 1, ptr %38, align 1
  store ptr @.str.53, ptr %7, align 8
  store i8 3, ptr %37, align 8
  %39 = call noundef ptr @_ZN4llvm13IRBuilderBase10CreateCastENS_11Instruction7CastOpsEPNS_5ValueEPNS_4TypeERKNS_5TwineE(ptr noundef nonnull align 8 dereferenceable(128) %0, i32 noundef 49, ptr noundef %.031, ptr noundef %9, ptr noundef nonnull align 8 dereferenceable(34) %7)
  ret ptr %39
}